; Function Attrs: nounwind uwtable
define range(i32 -1, -2147483648) i32 @evtag_peek(ptr noundef %0, ptr noundef writeonly captures(address_is_null) %1) local_unnamed_addr #1 {
  %3 = tail call i64 @evbuffer_get_length(ptr noundef %0) #7
  %4 = tail call i64 @llvm.umin.i64(i64 %3, i64 5)
  %5 = tail call ptr @evbuffer_pullup(ptr noundef %0, i64 noundef %4) #7
  %.not.i = icmp eq ptr %5, null
  br i1 %.not.i, label %decode_tag_internal.exit, label %.preheader.i

.preheader.i:                                     ; preds = %2, %13
  %.034.i = phi i32 [ %17, %13 ], [ 0, %2 ]
  %.033.i = phi ptr [ %8, %13 ], [ %5, %2 ]
  %.032.i = phi i64 [ %6, %13 ], [ 0, %2 ]
  %.030.i = phi i32 [ %18, %13 ], [ 0, %2 ]
  %6 = add i64 %.032.i, 1
  %exitcond.not.i = icmp eq i64 %.032.i, %3
  br i1 %exitcond.not.i, label %decode_tag_internal.exit, label %7

7:                                                ; preds = %.preheader.i
  %8 = getelementptr inbounds nuw i8, ptr %.033.i, i64 1
  %9 = load i8, ptr %.033.i, align 1
  %10 = icmp samesign ugt i32 %.030.i, 27
  br i1 %10, label %11, label %13

11:                                               ; preds = %7
  %.not39.i = icmp eq i32 %.030.i, 28
  %12 = and i8 %9, 112
  %.not40.i = icmp eq i8 %12, 0
  %or.cond.i = select i1 %.not39.i, i1 %.not40.i, i1 false
  br i1 %or.cond.i, label %13, label %decode_tag_internal.exit

13:                                               ; preds = %11, %7
  %14 = and i8 %9, 127
  %15 = zext nneg i8 %14 to i32
  %16 = shl i32 %15, %.030.i
  %17 = or i32 %16, %.034.i
  %18 = add nuw nsw i32 %.030.i, 7
  %.not41.i = icmp sgt i8 %9, -1
  br i1 %.not41.i, label %.thread49.i, label %.preheader.i

.thread49.i:                                      ; preds = %13
  %.not54.le.i = icmp ult i64 %.032.i, %3
  br i1 %.not54.le.i, label %19, label %decode_tag_internal.exit

19:                                               ; preds = %.thread49.i
  %.not44.i = icmp eq ptr %1, null
  br i1 %.not44.i, label %21, label %20

20:                                               ; preds = %19
  store i32 %17, ptr %1, align 4
  br label %21

21:                                               ; preds = %20, %19
  %22 = tail call i64 @llvm.umin.i64(i64 %6, i64 2147483647)
  %23 = trunc nuw nsw i64 %22 to i32
  br label %decode_tag_internal.exit

decode_tag_internal.exit:                         ; preds = %.preheader.i, %11, %2, %.thread49.i, %21
  %.0.i = phi i32 [ %23, %21 ], [ -1, %2 ], [ -1, %.thread49.i ], [ -1, %11 ], [ -1, %.preheader.i ]
  ret i32 %.0.i
}